target datalayout = "e-m:e-p270:32:32-p271:32:32-p272:64:64-i64:64-i128:128-f80:128-n8:16:32:64-S128"
target triple = "x86_64-pc-linux-gnu"

%struct.stbtt__csctx = type { i32, i32, float, float, float, float, i32, i32, i32, i32, ptr, i32 }

; Function Attrs: nounwind uwtable
define i32 @stbtt__GetGlyphShapeT2(ptr noundef %0, i32 noundef %1, ptr noundef %2) #0 {
  %4 = alloca i32, align 4
  %5 = alloca ptr, align 8
  %6 = alloca i32, align 4
  %7 = alloca ptr, align 8
  %8 = alloca %struct.stbtt__csctx, align 8
  %9 = alloca %struct.stbtt__csctx, align 8
  %10 = alloca i32, align 4
  store ptr %0, ptr %5, align 8, !tbaa !28
  store i32 %1, ptr %6, align 4, !tbaa !14
  store ptr %2, ptr %7, align 8, !tbaa !3
  call void @llvm.lifetime.start.p0(i64 56, ptr %8) #8
  call void @llvm.memset.p0.i64(ptr align 8 %8, i8 0, i64 56, i1 false)
  %11 = getelementptr inbounds { i32, i32, float, float, float, float, i32, i32, i32, i32, ptr, i32, [4 x i8] }, ptr %8, i32 0, i32 0
  store i32 1, ptr %11, align 8
  call void @llvm.lifetime.start.p0(i64 56, ptr %9) #8
  call void @llvm.memset.p0.i64(ptr align 8 %9, i8 0, i64 56, i1 false)
  %12 = load ptr, ptr %5, align 8, !tbaa !28
  %13 = load i32, ptr %6, align 4, !tbaa !14
  %14 = call i32 @stbtt__run_charstring(ptr noundef %12, i32 noundef %13, ptr noundef %8)
  %15 = icmp ne i32 %14, 0
  br i1 %15, label %16, label %34

16:                                               ; preds = %3
  %17 = getelementptr inbounds nuw %struct.stbtt__csctx, ptr %8, i32 0, i32 11
  %18 = load i32, ptr %17, align 8, !tbaa !62
  %19 = sext i32 %18 to i64
  %20 = mul i64 %19, 14
  %21 = call noalias ptr @malloc(i64 noundef %20) #9
  %22 = load ptr, ptr %7, align 8, !tbaa !3
  store ptr %21, ptr %22, align 8, !tbaa !3
  %23 = load ptr, ptr %7, align 8, !tbaa !3
  %24 = load ptr, ptr %23, align 8, !tbaa !3
  %25 = getelementptr inbounds nuw %struct.stbtt__csctx, ptr %9, i32 0, i32 10
  store ptr %24, ptr %25, align 8, !tbaa !72
  %26 = load ptr, ptr %5, align 8, !tbaa !28
  %27 = load i32, ptr %6, align 4, !tbaa !14
  %28 = call i32 @stbtt__run_charstring(ptr noundef %26, i32 noundef %27, ptr noundef %9)
  %29 = icmp ne i32 %28, 0
  br i1 %29, label %30, label %33

30:                                               ; preds = %16
  %31 = getelementptr inbounds nuw %struct.stbtt__csctx, ptr %9, i32 0, i32 11
  %32 = load i32, ptr %31, align 8, !tbaa !62
  store i32 %32, ptr %4, align 4
  store i32 1, ptr %10, align 4
  br label %36

33:                                               ; preds = %16
  br label %34

34:                                               ; preds = %33, %3
  %35 = load ptr, ptr %7, align 8, !tbaa !3
  store ptr null, ptr %35, align 8, !tbaa !3
  store i32 0, ptr %4, align 4
  store i32 1, ptr %10, align 4
  br label %36

36:                                               ; preds = %34, %30
  call void @llvm.lifetime.end.p0(i64 56, ptr %9) #8
  call void @llvm.lifetime.end.p0(i64 56, ptr %8) #8
  %37 = load i32, ptr %4, align 4
  ret i32 %37
}