; Function Attrs: nofree nounwind uwtable
define i32 @stbtt__GetGlyphShapeT2(ptr noundef readonly captures(none) %0, i32 noundef %1, ptr noundef writeonly captures(none) initializes((0, 8)) %2) local_unnamed_addr #19 {
  %4 = alloca %struct.stbtt__csctx, align 8
  %5 = alloca %struct.stbtt__csctx, align 8
  call void @llvm.lifetime.start.p0(i64 56, ptr nonnull %4) #32
  call void @llvm.memset.p0.i64(ptr noundef nonnull align 8 dereferenceable(56) %4, i8 0, i64 56, i1 false)
  store i32 1, ptr %4, align 8
  call void @llvm.lifetime.start.p0(i64 56, ptr nonnull %5) #32
  call void @llvm.memset.p0.i64(ptr noundef nonnull align 8 dereferenceable(56) %5, i8 0, i64 56, i1 false)
  %6 = call i32 @stbtt__run_charstring(ptr noundef %0, i32 noundef %1, ptr noundef nonnull %4)
  %.not = icmp eq i32 %6, 0
  br i1 %.not, label %18, label %7

7:                                                ; preds = %3
  %8 = getelementptr inbounds nuw i8, ptr %4, i64 48
  %9 = load i32, ptr %8, align 8, !tbaa !40
  %10 = sext i32 %9 to i64
  %11 = mul nsw i64 %10, 14
  %12 = call noalias ptr @malloc(i64 noundef %11) #33
  store ptr %12, ptr %2, align 8, !tbaa !43
  %13 = getelementptr inbounds nuw i8, ptr %5, i64 40
  store ptr %12, ptr %13, align 8, !tbaa !44
  %14 = call i32 @stbtt__run_charstring(ptr noundef %0, i32 noundef %1, ptr noundef nonnull %5)
  %.not7 = icmp eq i32 %14, 0
  br i1 %.not7, label %18, label %15

15:                                               ; preds = %7
  %16 = getelementptr inbounds nuw i8, ptr %5, i64 48
  %17 = load i32, ptr %16, align 8, !tbaa !40
  br label %19

18:                                               ; preds = %7, %3
  store ptr null, ptr %2, align 8, !tbaa !43
  br label %19

19:                                               ; preds = %18, %15
  %.0 = phi i32 [ %17, %15 ], [ 0, %18 ]
  call void @llvm.lifetime.end.p0(i64 56, ptr nonnull %5) #32
  call void @llvm.lifetime.end.p0(i64 56, ptr nonnull %4) #32
  ret i32 %.0
}